; Function Attrs: mustprogress nofree norecurse nosync nounwind willreturn memory(argmem: read) uwtable
define noundef zeroext i1 @_ZN7rocksdb26TransactionLogIteratorImpl5ValidEv(ptr nocapture noundef nonnull readonly align 8 dereferenceable(208) %this) unnamed_addr #9 align 2 {
entry:
  %started_ = getelementptr inbounds i8, ptr %this, i64 88
  %0 = load <2 x i8>, ptr %started_, align 8
  %1 = trunc <2 x i8> %0 to <2 x i1>
  %2 = extractelement <2 x i1> %1, i64 0
  %3 = extractelement <2 x i1> %1, i64 1
  %4 = select i1 %2, i1 %3, i1 false
  ret i1 %4
}